; Function Attrs: mustprogress uwtable
define noundef nonnull align 8 dereferenceable(64) ptr @_ZNK6icu_7713SimpleFactory14getDisplayNameERKNS_13UnicodeStringERKNS_6LocaleERS1_(ptr noundef nonnull align 8 dereferenceable(81) %0, ptr noundef nonnull align 8 dereferenceable(64) %1, ptr nonnull readnone align 8 captures(none) %2, ptr noundef nonnull returned align 8 dereferenceable(64) %3) unnamed_addr #0 align 2 {
  %5 = getelementptr inbounds nuw i8, ptr %0, i64 80
  %6 = load i8, ptr %5, align 8, !tbaa !18
  %.not = icmp eq i8 %6, 0
  br i1 %.not, label %_ZNK6icu_7713UnicodeStringeqERKS0_.exit.thread, label %7

7:                                                ; preds = %4
  %8 = getelementptr inbounds nuw i8, ptr %0, i64 16
  %9 = getelementptr inbounds nuw i8, ptr %0, i64 24
  %10 = load i16, ptr %9, align 8, !tbaa !6
  %11 = and i16 %10, 1
  %.not.i = icmp eq i16 %11, 0
  br i1 %.not.i, label %16, label %12

12:                                               ; preds = %7
  %13 = getelementptr inbounds nuw i8, ptr %1, i64 8
  %14 = load i16, ptr %13, align 8, !tbaa !6
  %15 = and i16 %14, 1
  %.not6 = icmp eq i16 %15, 0
  br i1 %.not6, label %_ZNK6icu_7713UnicodeStringeqERKS0_.exit.thread, label %39

16:                                               ; preds = %7
  %17 = icmp slt i16 %10, 0
  %18 = ashr i16 %10, 5
  %19 = sext i16 %18 to i32
  %20 = getelementptr inbounds nuw i8, ptr %0, i64 28
  %21 = load i32, ptr %20, align 4
  %22 = select i1 %17, i32 %21, i32 %19
  %23 = getelementptr inbounds nuw i8, ptr %1, i64 8
  %24 = load i16, ptr %23, align 8, !tbaa !6
  %25 = icmp slt i16 %24, 0
  %26 = ashr i16 %24, 5
  %27 = sext i16 %26 to i32
  %28 = getelementptr inbounds nuw i8, ptr %1, i64 12
  %29 = load i32, ptr %28, align 4
  %30 = select i1 %25, i32 %29, i32 %27
  %31 = and i16 %24, 1
  %.not9.i = icmp eq i16 %31, 0
  %32 = icmp eq i32 %22, %30
  %or.cond.i = and i1 %.not9.i, %32
  br i1 %or.cond.i, label %_ZNK6icu_7713UnicodeStringeqERKS0_.exit, label %_ZNK6icu_7713UnicodeStringeqERKS0_.exit.thread

_ZNK6icu_7713UnicodeStringeqERKS0_.exit:          ; preds = %16
  %33 = and i16 %24, 2
  %.not.i.i.i = icmp eq i16 %33, 0
  %34 = getelementptr inbounds nuw i8, ptr %1, i64 10
  %35 = getelementptr inbounds nuw i8, ptr %1, i64 24
  %36 = load ptr, ptr %35, align 8
  %37 = select i1 %.not.i.i.i, ptr %36, ptr %34
  %38 = tail call noundef signext i8 @_ZNK6icu_7713UnicodeString8doEqualsEPKDsi(ptr noundef nonnull align 8 dereferenceable(64) %8, ptr noundef %37, i32 noundef %22)
  %.not7 = icmp eq i8 %38, 0
  br i1 %.not7, label %_ZNK6icu_7713UnicodeStringeqERKS0_.exit.thread, label %39

39:                                               ; preds = %12, %_ZNK6icu_7713UnicodeStringeqERKS0_.exit
  %40 = tail call noundef nonnull align 8 dereferenceable(64) ptr @_ZN6icu_7713UnicodeStringaSERKS0_(ptr noundef nonnull align 8 dereferenceable(64) %3, ptr noundef nonnull align 8 dereferenceable(64) %8)
  br label %41

_ZNK6icu_7713UnicodeStringeqERKS0_.exit.thread:   ; preds = %16, %12, %_ZNK6icu_7713UnicodeStringeqERKS0_.exit, %4
  tail call void @_ZN6icu_7713UnicodeString10setToBogusEv(ptr noundef nonnull align 8 dereferenceable(64) %3)
  br label %41

41:                                               ; preds = %_ZNK6icu_7713UnicodeStringeqERKS0_.exit.thread, %39
  ret ptr %3
}